target datalayout = "e-m:e-p270:32:32-p271:32:32-p272:64:64-i64:64-i128:128-f80:128-n8:16:32:64-S128"
target triple = "x86_64-pc-linux-gnu"

@.str.5 = private unnamed_addr constant [1 x i8] zeroinitializer, align 1
@_ZL14gDataDirectory = internal global ptr null, align 8

; Function Attrs: mustprogress uwtable
define void @u_setDataDirectory_77(ptr noundef %0) #1 {
  %2 = alloca ptr, align 8
  %3 = alloca ptr, align 8
  %4 = alloca i32, align 4
  %5 = alloca i32, align 4
  store ptr %0, ptr %2, align 8, !tbaa !17
  call void @llvm.lifetime.start.p0(i64 8, ptr %3) #14
  call void @llvm.lifetime.start.p0(i64 4, ptr %4) #14
  %6 = load ptr, ptr %2, align 8, !tbaa !17
  %7 = icmp eq ptr %6, null
  br i1 %7, label %13, label %8

8:                                                ; preds = %1
  %9 = load ptr, ptr %2, align 8, !tbaa !17
  %10 = load i8, ptr %9, align 1, !tbaa !28
  %11 = sext i8 %10 to i32
  %12 = icmp eq i32 %11, 0
  br i1 %12, label %13, label %14

13:                                               ; preds = %8, %1
  store ptr @.str.5, ptr %3, align 8, !tbaa !17
  br label %29

14:                                               ; preds = %8
  %15 = load ptr, ptr %2, align 8, !tbaa !17
  %16 = call i64 @strlen(ptr noundef %15) #17
  %17 = trunc i64 %16 to i32
  store i32 %17, ptr %4, align 4, !tbaa !14
  %18 = load i32, ptr %4, align 4, !tbaa !14
  %19 = add nsw i32 %18, 2
  %20 = sext i32 %19 to i64
  %21 = call noalias ptr @uprv_malloc_77(i64 noundef %20) #15
  store ptr %21, ptr %3, align 8, !tbaa !17
  %22 = load ptr, ptr %3, align 8, !tbaa !17
  %23 = icmp eq ptr %22, null
  br i1 %23, label %24, label %25

24:                                               ; preds = %14
  store i32 1, ptr %5, align 4
  br label %40

25:                                               ; preds = %14
  %26 = load ptr, ptr %3, align 8, !tbaa !17
  %27 = load ptr, ptr %2, align 8, !tbaa !17
  %28 = call ptr @strcpy(ptr noundef %26, ptr noundef %27) #14
  br label %29

29:                                               ; preds = %25, %13
  %30 = load ptr, ptr @_ZL14gDataDirectory, align 8, !tbaa !17
  %31 = icmp ne ptr %30, null
  br i1 %31, label %32, label %38

32:                                               ; preds = %29
  %33 = load ptr, ptr @_ZL14gDataDirectory, align 8, !tbaa !17
  %34 = load i8, ptr %33, align 1, !tbaa !28
  %35 = icmp ne i8 %34, 0
  br i1 %35, label %36, label %38

36:                                               ; preds = %32
  %37 = load ptr, ptr @_ZL14gDataDirectory, align 8, !tbaa !17
  call void @uprv_free_77(ptr noundef %37)
  br label %38

38:                                               ; preds = %36, %32, %29
  %39 = load ptr, ptr %3, align 8, !tbaa !17
  store ptr %39, ptr @_ZL14gDataDirectory, align 8, !tbaa !17
  call void @ucln_common_registerCleanup_77(i32 noundef 24, ptr noundef @_ZL13putil_cleanupv)
  store i32 0, ptr %5, align 4
  br label %40

40:                                               ; preds = %38, %24
  call void @llvm.lifetime.end.p0(i64 4, ptr %4) #14
  call void @llvm.lifetime.end.p0(i64 8, ptr %3) #14
  %41 = load i32, ptr %5, align 4
  switch i32 %41, label %43 [
    i32 0, label %42
    i32 1, label %42
  ]

42:                                               ; preds = %40, %40
  ret void

43:                                               ; preds = %40
  unreachable
}