; Function Attrs: mustprogress uwtable
define void @u_setDataDirectory_77(ptr noundef readonly %0) local_unnamed_addr #1 {
  %2 = icmp eq ptr %0, null
  br i1 %2, label %14, label %3

3:                                                ; preds = %1
  %4 = load i8, ptr %0, align 1, !tbaa !21
  %5 = icmp eq i8 %4, 0
  br i1 %5, label %14, label %6

6:                                                ; preds = %3
  %7 = tail call i64 @strlen(ptr noundef nonnull dereferenceable(1) %0) #35
  %8 = shl i64 %7, 32
  %sext = add i64 %8, 8589934592
  %9 = ashr exact i64 %sext, 32
  %10 = tail call noalias ptr @uprv_malloc_77(i64 noundef %9) #33
  %11 = icmp eq ptr %10, null
  br i1 %11, label %20, label %12

12:                                               ; preds = %6
  %13 = tail call ptr @strcpy(ptr noundef nonnull dereferenceable(1) %10, ptr noundef nonnull dereferenceable(1) %0) #32
  br label %14

14:                                               ; preds = %1, %3, %12
  %.0 = phi ptr [ %10, %12 ], [ @.str.5, %3 ], [ @.str.5, %1 ]
  %15 = load ptr, ptr @_ZL14gDataDirectory, align 8, !tbaa !20
  %.not = icmp eq ptr %15, null
  br i1 %.not, label %19, label %16

16:                                               ; preds = %14
  %17 = load i8, ptr %15, align 1, !tbaa !21
  %.not10 = icmp eq i8 %17, 0
  br i1 %.not10, label %19, label %18

18:                                               ; preds = %16
  tail call void @uprv_free_77(ptr noundef nonnull %15)
  br label %19

19:                                               ; preds = %18, %16, %14
  store ptr %.0, ptr @_ZL14gDataDirectory, align 8, !tbaa !20
  tail call void @ucln_common_registerCleanup_77(i32 noundef 24, ptr noundef nonnull @_ZL13putil_cleanupv)
  br label %20

20:                                               ; preds = %6, %19
  ret void
}